target datalayout = "e-m:e-p270:32:32-p271:32:32-p272:64:64-i64:64-i128:128-f80:128-n8:16:32:64-S128"
target triple = "x86_64-pc-linux-gnu"

%struct.MCVList = type { i32, i32, i32, i16, [8 x i32], [0 x %struct.MCVItem] }
%struct.MCVItem = type { double, double, ptr, ptr }
%struct.StatisticExtInfo = type { i32, i32, i8, ptr, i8, ptr, ptr }
%union.ListCell = type { ptr }

; Function Attrs: nounwind uwtable
define dso_local double @mcv_clause_selectivity_or(ptr noundef %0, ptr noundef %1, ptr noundef %2, ptr noundef %3, ptr noundef %4, ptr noundef %5, ptr noundef %6, ptr noundef %7, ptr noundef %8) #0 {
  %10 = alloca ptr, align 8
  %11 = alloca ptr, align 8
  %12 = alloca ptr, align 8
  %13 = alloca ptr, align 8
  %14 = alloca ptr, align 8
  %15 = alloca ptr, align 8
  %16 = alloca ptr, align 8
  %17 = alloca ptr, align 8
  %18 = alloca ptr, align 8
  %19 = alloca double, align 8
  %20 = alloca ptr, align 8
  %21 = alloca i32, align 4
  %22 = alloca %union.ListCell, align 8
  store ptr %0, ptr %10, align 8
  store ptr %1, ptr %11, align 8
  store ptr %2, ptr %12, align 8
  store ptr %3, ptr %13, align 8
  store ptr %4, ptr %14, align 8
  store ptr %5, ptr %15, align 8
  store ptr %6, ptr %16, align 8
  store ptr %7, ptr %17, align 8
  store ptr %8, ptr %18, align 8
  call void @llvm.lifetime.start.p0(i64 8, ptr %19) #9
  store double 0.000000e+00, ptr %19, align 8
  call void @llvm.lifetime.start.p0(i64 8, ptr %20) #9
  call void @llvm.lifetime.start.p0(i64 4, ptr %21) #9
  %23 = load ptr, ptr %14, align 8
  %24 = load ptr, ptr %23, align 8
  %25 = icmp eq ptr %24, null
  br i1 %25, label %26, label %34

26:                                               ; preds = %9
  %27 = load ptr, ptr %12, align 8
  %28 = getelementptr inbounds nuw %struct.MCVList, ptr %27, i32 0, i32 2
  %29 = load i32, ptr %28, align 8
  %30 = zext i32 %29 to i64
  %31 = mul i64 1, %30
  %32 = call ptr @palloc0(i64 noundef %31)
  %33 = load ptr, ptr %14, align 8
  store ptr %32, ptr %33, align 8
  br label %34

34:                                               ; preds = %26, %9
  %35 = load ptr, ptr %10, align 8
  %36 = load ptr, ptr %13, align 8
  store ptr %36, ptr %22, align 8
  %37 = getelementptr inbounds nuw %union.ListCell, ptr %22, i32 0, i32 0
  %38 = load ptr, ptr %37, align 8
  %39 = call ptr @list_make1_impl(i32 noundef 1, ptr %38)
  %40 = load ptr, ptr %11, align 8
  %41 = getelementptr inbounds nuw %struct.StatisticExtInfo, ptr %40, i32 0, i32 5
  %42 = load ptr, ptr %41, align 8
  %43 = load ptr, ptr %11, align 8
  %44 = getelementptr inbounds nuw %struct.StatisticExtInfo, ptr %43, i32 0, i32 6
  %45 = load ptr, ptr %44, align 8
  %46 = load ptr, ptr %12, align 8
  %47 = call ptr @mcv_get_match_bitmap(ptr noundef %35, ptr noundef %39, ptr noundef %42, ptr noundef %45, ptr noundef %46, i1 noundef zeroext false)
  store ptr %47, ptr %20, align 8
  %48 = load ptr, ptr %15, align 8
  store double 0.000000e+00, ptr %48, align 8
  %49 = load ptr, ptr %16, align 8
  store double 0.000000e+00, ptr %49, align 8
  %50 = load ptr, ptr %17, align 8
  store double 0.000000e+00, ptr %50, align 8
  %51 = load ptr, ptr %18, align 8
  store double 0.000000e+00, ptr %51, align 8
  store i32 0, ptr %21, align 4
  br label %52

52:                                               ; preds = %147, %34
  %53 = load i32, ptr %21, align 4
  %54 = load ptr, ptr %12, align 8
  %55 = getelementptr inbounds nuw %struct.MCVList, ptr %54, i32 0, i32 2
  %56 = load i32, ptr %55, align 8
  %57 = icmp ult i32 %53, %56
  br i1 %57, label %58, label %150

58:                                               ; preds = %52
  %59 = load ptr, ptr %12, align 8
  %60 = getelementptr inbounds nuw %struct.MCVList, ptr %59, i32 0, i32 5
  %61 = load i32, ptr %21, align 4
  %62 = sext i32 %61 to i64
  %63 = getelementptr inbounds [0 x %struct.MCVItem], ptr %60, i64 0, i64 %62
  %64 = getelementptr inbounds nuw %struct.MCVItem, ptr %63, i32 0, i32 0
  %65 = load double, ptr %64, align 8
  %66 = load ptr, ptr %18, align 8
  %67 = load double, ptr %66, align 8
  %68 = fadd double %67, %65
  store double %68, ptr %66, align 8
  %69 = load ptr, ptr %20, align 8
  %70 = load i32, ptr %21, align 4
  %71 = sext i32 %70 to i64
  %72 = getelementptr inbounds i8, ptr %69, i64 %71
  %73 = load i8, ptr %72, align 1, !range !14, !noundef !15
  %74 = trunc i8 %73 to i1
  br i1 %74, label %75, label %124

75:                                               ; preds = %58
  %76 = load ptr, ptr %12, align 8
  %77 = getelementptr inbounds nuw %struct.MCVList, ptr %76, i32 0, i32 5
  %78 = load i32, ptr %21, align 4
  %79 = sext i32 %78 to i64
  %80 = getelementptr inbounds [0 x %struct.MCVItem], ptr %77, i64 0, i64 %79
  %81 = getelementptr inbounds nuw %struct.MCVItem, ptr %80, i32 0, i32 0
  %82 = load double, ptr %81, align 8
  %83 = load double, ptr %19, align 8
  %84 = fadd double %83, %82
  store double %84, ptr %19, align 8
  %85 = load ptr, ptr %12, align 8
  %86 = getelementptr inbounds nuw %struct.MCVList, ptr %85, i32 0, i32 5
  %87 = load i32, ptr %21, align 4
  %88 = sext i32 %87 to i64
  %89 = getelementptr inbounds [0 x %struct.MCVItem], ptr %86, i64 0, i64 %88
  %90 = getelementptr inbounds nuw %struct.MCVItem, ptr %89, i32 0, i32 1
  %91 = load double, ptr %90, align 8
  %92 = load ptr, ptr %15, align 8
  %93 = load double, ptr %92, align 8
  %94 = fadd double %93, %91
  store double %94, ptr %92, align 8
  %95 = load ptr, ptr %14, align 8
  %96 = load ptr, ptr %95, align 8
  %97 = load i32, ptr %21, align 4
  %98 = sext i32 %97 to i64
  %99 = getelementptr inbounds i8, ptr %96, i64 %98
  %100 = load i8, ptr %99, align 1, !range !14, !noundef !15
  %101 = trunc i8 %100 to i1
  br i1 %101, label %102, label %123

102:                                              ; preds = %75
  %103 = load ptr, ptr %12, align 8
  %104 = getelementptr inbounds nuw %struct.MCVList, ptr %103, i32 0, i32 5
  %105 = load i32, ptr %21, align 4
  %106 = sext i32 %105 to i64
  %107 = getelementptr inbounds [0 x %struct.MCVItem], ptr %104, i64 0, i64 %106
  %108 = getelementptr inbounds nuw %struct.MCVItem, ptr %107, i32 0, i32 0
  %109 = load double, ptr %108, align 8
  %110 = load ptr, ptr %16, align 8
  %111 = load double, ptr %110, align 8
  %112 = fadd double %111, %109
  store double %112, ptr %110, align 8
  %113 = load ptr, ptr %12, align 8
  %114 = getelementptr inbounds nuw %struct.MCVList, ptr %113, i32 0, i32 5
  %115 = load i32, ptr %21, align 4
  %116 = sext i32 %115 to i64
  %117 = getelementptr inbounds [0 x %struct.MCVItem], ptr %114, i64 0, i64 %116
  %118 = getelementptr inbounds nuw %struct.MCVItem, ptr %117, i32 0, i32 1
  %119 = load double, ptr %118, align 8
  %120 = load ptr, ptr %17, align 8
  %121 = load double, ptr %120, align 8
  %122 = fadd double %121, %119
  store double %122, ptr %120, align 8
  br label %123

123:                                              ; preds = %102, %75
  br label %124

124:                                              ; preds = %123, %58
  %125 = load ptr, ptr %14, align 8
  %126 = load ptr, ptr %125, align 8
  %127 = load i32, ptr %21, align 4
  %128 = sext i32 %127 to i64
  %129 = getelementptr inbounds i8, ptr %126, i64 %128
  %130 = load i8, ptr %129, align 1, !range !14, !noundef !15
  %131 = trunc i8 %130 to i1
  br i1 %131, label %139, label %132

132:                                              ; preds = %124
  %133 = load ptr, ptr %20, align 8
  %134 = load i32, ptr %21, align 4
  %135 = sext i32 %134 to i64
  %136 = getelementptr inbounds i8, ptr %133, i64 %135
  %137 = load i8, ptr %136, align 1, !range !14, !noundef !15
  %138 = trunc i8 %137 to i1
  br label %139

139:                                              ; preds = %132, %124
  %140 = phi i1 [ true, %124 ], [ %138, %132 ]
  %141 = load ptr, ptr %14, align 8
  %142 = load ptr, ptr %141, align 8
  %143 = load i32, ptr %21, align 4
  %144 = sext i32 %143 to i64
  %145 = getelementptr inbounds i8, ptr %142, i64 %144
  %146 = zext i1 %140 to i8
  store i8 %146, ptr %145, align 1
  br label %147

147:                                              ; preds = %139
  %148 = load i32, ptr %21, align 4
  %149 = add i32 %148, 1
  store i32 %149, ptr %21, align 4
  br label %52, !llvm.loop !47

150:                                              ; preds = %52
  %151 = load ptr, ptr %20, align 8
  call void @pfree(ptr noundef %151)
  %152 = load double, ptr %19, align 8
  call void @llvm.lifetime.end.p0(i64 4, ptr %21) #9
  call void @llvm.lifetime.end.p0(i64 8, ptr %20) #9
  call void @llvm.lifetime.end.p0(i64 8, ptr %19) #9
  ret double %152
}