; Function Attrs: nounwind uwtable
define dso_local double @mcv_clause_selectivity_or(ptr noundef readnone captures(none) %0, ptr noundef readonly captures(none) %1, ptr noundef %2, ptr noundef %3, ptr noundef captures(none) %4, ptr noundef captures(none) initializes((0, 8)) %5, ptr noundef captures(none) initializes((0, 8)) %6, ptr noundef captures(none) initializes((0, 8)) %7, ptr noundef captures(none) initializes((0, 8)) %8) local_unnamed_addr #0 {
  %10 = load ptr, ptr %4, align 8
  %11 = icmp eq ptr %10, null
  br i1 %11, label %12, label %17

12:                                               ; preds = %9
  %13 = getelementptr inbounds nuw i8, ptr %2, i64 8
  %14 = load i32, ptr %13, align 8
  %15 = zext i32 %14 to i64
  %16 = tail call ptr @palloc0(i64 noundef %15) #13
  store ptr %16, ptr %4, align 8
  br label %17

17:                                               ; preds = %12, %9
  %18 = tail call ptr @list_make1_impl(i32 noundef 1, ptr %3) #13
  %19 = getelementptr inbounds nuw i8, ptr %1, i64 32
  %20 = load ptr, ptr %19, align 8
  %21 = getelementptr inbounds nuw i8, ptr %1, i64 40
  %22 = load ptr, ptr %21, align 8
  %23 = tail call fastcc ptr @mcv_get_match_bitmap(ptr noundef %18, ptr noundef %20, ptr noundef %22, ptr noundef %2, i1 noundef zeroext false)
  store double 0.000000e+00, ptr %5, align 8
  store double 0.000000e+00, ptr %6, align 8
  store double 0.000000e+00, ptr %7, align 8
  store double 0.000000e+00, ptr %8, align 8
  %24 = getelementptr inbounds nuw i8, ptr %2, i64 8
  %25 = load i32, ptr %24, align 8
  %.not = icmp eq i32 %25, 0
  br i1 %.not, label %._crit_edge, label %.lr.ph

.lr.ph:                                           ; preds = %17
  %26 = getelementptr inbounds nuw i8, ptr %2, i64 48
  br label %27

27:                                               ; preds = %.lr.ph, %61
  %.043 = phi double [ 0.000000e+00, %.lr.ph ], [ %.1, %61 ]
  %.04142 = phi i32 [ 0, %.lr.ph ], [ %63, %61 ]
  %28 = sext i32 %.04142 to i64
  %29 = getelementptr inbounds [0 x %struct.MCVItem], ptr %26, i64 0, i64 %28
  %30 = load double, ptr %29, align 8
  %31 = load double, ptr %8, align 8
  %32 = fadd double %30, %31
  store double %32, ptr %8, align 8
  %33 = getelementptr inbounds i8, ptr %23, i64 %28
  %34 = load i8, ptr %33, align 1, !range !9, !noundef !10
  %35 = trunc nuw i8 %34 to i1
  br i1 %35, label %36, label %54

36:                                               ; preds = %27
  %37 = load double, ptr %29, align 8
  %38 = fadd double %.043, %37
  %39 = getelementptr inbounds nuw i8, ptr %29, i64 8
  %40 = load double, ptr %39, align 8
  %41 = load double, ptr %5, align 8
  %42 = fadd double %40, %41
  store double %42, ptr %5, align 8
  %43 = load ptr, ptr %4, align 8
  %44 = getelementptr inbounds i8, ptr %43, i64 %28
  %45 = load i8, ptr %44, align 1, !range !9, !noundef !10
  %46 = trunc nuw i8 %45 to i1
  br i1 %46, label %47, label %54

47:                                               ; preds = %36
  %48 = load double, ptr %29, align 8
  %49 = load double, ptr %6, align 8
  %50 = fadd double %48, %49
  store double %50, ptr %6, align 8
  %51 = load double, ptr %39, align 8
  %52 = load double, ptr %7, align 8
  %53 = fadd double %51, %52
  store double %53, ptr %7, align 8
  br label %54

54:                                               ; preds = %36, %47, %27
  %.1 = phi double [ %38, %47 ], [ %38, %36 ], [ %.043, %27 ]
  %55 = load ptr, ptr %4, align 8
  %56 = getelementptr inbounds i8, ptr %55, i64 %28
  %57 = load i8, ptr %56, align 1, !range !9, !noundef !10
  %58 = trunc nuw i8 %57 to i1
  br i1 %58, label %61, label %59

59:                                               ; preds = %54
  %60 = load i8, ptr %33, align 1, !range !9, !noundef !10
  br label %61

61:                                               ; preds = %59, %54
  %62 = phi i8 [ 1, %54 ], [ %60, %59 ]
  store i8 %62, ptr %56, align 1
  %63 = add nuw i32 %.04142, 1
  %64 = load i32, ptr %24, align 8
  %65 = icmp ult i32 %63, %64
  br i1 %65, label %27, label %._crit_edge, !llvm.loop !47

._crit_edge:                                      ; preds = %61, %17
  %.0.lcssa = phi double [ 0.000000e+00, %17 ], [ %.1, %61 ]
  tail call void @pfree(ptr noundef %23) #13
  ret double %.0.lcssa
}